target datalayout = "e-m:e-p270:32:32-p271:32:32-p272:64:64-i64:64-i128:128-f80:128-n8:16:32:64-S128"
target triple = "x86_64-unknown-linux-gnu"

%"class.std::__cxx11::basic_string" = type { %"struct.std::__cxx11::basic_string<char>::_Alloc_hider", i64, %union.anon }
%"struct.std::__cxx11::basic_string<char>::_Alloc_hider" = type { ptr }
%union.anon = type { i64, [8 x i8] }
%"class.folly::Range" = type { ptr, ptr }
%"class.proxygen::HTTP1xCodec" = type <{ %"class.proxygen::HTTPCodec", %"class.std::__cxx11::basic_string", ptr, i64, i64, %"struct.proxygen::http_parser", ptr, %"class.std::unique_ptr", %"class.std::unique_ptr", %"class.std::unique_ptr.7", %"class.std::__cxx11::basic_string", %"class.folly::Range", %"class.std::__cxx11::basic_string", %"class.std::__cxx11::basic_string", %"class.std::__cxx11::basic_string", %"class.std::__cxx11::basic_string", %"class.std::__cxx11::basic_string", %"class.std::__cxx11::basic_string", %"struct.proxygen::HTTPHeaderSize", i8, i8, i8, i8, %"struct.std::pair", i32, [4 x i8] }>
%"class.proxygen::HTTPCodec" = type { ptr }
%"struct.proxygen::http_parser" = type { i8, i8, i8, i8, i32, i64, i16, i16, i16, i8, i8, ptr }
%"class.std::unique_ptr" = type { %"struct.std::__uniq_ptr_data" }
%"struct.std::__uniq_ptr_data" = type { %"class.std::__uniq_ptr_impl" }
%"class.std::__uniq_ptr_impl" = type { %"class.std::tuple" }
%"class.std::tuple" = type { %"struct.std::_Tuple_impl" }
%"struct.std::_Tuple_impl" = type { %"struct.std::_Head_base.6" }
%"struct.std::_Head_base.6" = type { ptr }
%"class.std::unique_ptr.7" = type { %"struct.std::__uniq_ptr_data.8" }
%"struct.std::__uniq_ptr_data.8" = type { %"class.std::__uniq_ptr_impl.9" }
%"class.std::__uniq_ptr_impl.9" = type { %"class.std::tuple.10" }
%"class.std::tuple.10" = type { %"struct.std::_Tuple_impl.11" }
%"struct.std::_Tuple_impl.11" = type { %"struct.std::_Head_base.14" }
%"struct.std::_Head_base.14" = type { ptr }
%"struct.proxygen::HTTPHeaderSize" = type { i32, i32, i32 }
%"struct.std::pair" = type { i8, %"class.std::__cxx11::basic_string" }

; Function Attrs: mustprogress nounwind uwtable
define noundef zeroext i1 @_ZNK8proxygen11HTTP1xCodec10isReusableEv(ptr noundef nonnull align 8 dereferenceable(428) %this) unnamed_addr #5 align 2 {
entry:
  %this.addr = alloca ptr, align 8
  store ptr %this, ptr %this.addr, align 8
  %this1 = load ptr, ptr %this.addr, align 8
  %keepalive_ = getelementptr inbounds %"class.proxygen::HTTP1xCodec", ptr %this1, i32 0, i32 24
  %bf.load = load i32, ptr %keepalive_, align 8
  %bf.lshr = lshr i32 %bf.load, 11
  %bf.clear = and i32 %bf.lshr, 1
  %bf.cast = trunc i32 %bf.clear to i1
  br i1 %bf.cast, label %land.lhs.true, label %land.end

land.lhs.true:                                    ; preds = %entry
  %egressUpgrade_ = getelementptr inbounds %"class.proxygen::HTTP1xCodec", ptr %this1, i32 0, i32 24
  %bf.load2 = load i32, ptr %egressUpgrade_, align 8
  %bf.lshr3 = lshr i32 %bf.load2, 21
  %bf.clear4 = and i32 %bf.lshr3, 1
  %bf.cast5 = trunc i32 %bf.clear4 to i1
  br i1 %bf.cast5, label %land.end, label %land.lhs.true6

land.lhs.true6:                                   ; preds = %land.lhs.true
  %ingressUpgrade_ = getelementptr inbounds %"class.proxygen::HTTP1xCodec", ptr %this1, i32 0, i32 24
  %bf.load7 = load i32, ptr %ingressUpgrade_, align 8
  %bf.lshr8 = lshr i32 %bf.load7, 19
  %bf.clear9 = and i32 %bf.lshr8, 1
  %bf.cast10 = trunc i32 %bf.clear9 to i1
  br i1 %bf.cast10, label %land.end, label %land.lhs.true11

land.lhs.true11:                                  ; preds = %land.lhs.true6
  %parserError_ = getelementptr inbounds %"class.proxygen::HTTP1xCodec", ptr %this1, i32 0, i32 24
  %bf.load12 = load i32, ptr %parserError_, align 8
  %bf.lshr13 = lshr i32 %bf.load12, 5
  %bf.clear14 = and i32 %bf.lshr13, 1
  %bf.cast15 = trunc i32 %bf.clear14 to i1
  br i1 %bf.cast15, label %land.end, label %land.rhs

land.rhs:                                         ; preds = %land.lhs.true11
  %websockAcceptKey_ = getelementptr inbounds %"class.proxygen::HTTP1xCodec", ptr %this1, i32 0, i32 1
  %call = call noundef zeroext i1 @_ZNKSt7__cxx1112basic_stringIcSt11char_traitsIcESaIcEE5emptyEv(ptr noundef nonnull align 8 dereferenceable(32) %websockAcceptKey_) #3
  br label %land.end

land.end:                                         ; preds = %land.rhs, %land.lhs.true11, %land.lhs.true6, %land.lhs.true, %entry
  %0 = phi i1 [ false, %land.lhs.true11 ], [ false, %land.lhs.true6 ], [ false, %land.lhs.true ], [ false, %entry ], [ %call, %land.rhs ]
  ret i1 %0
}