; Function Attrs: mustprogress nounwind uwtable
define noundef zeroext i1 @_ZNK8proxygen11HTTP1xCodec10isReusableEv(ptr noundef nonnull align 8 dereferenceable(428) %this) unnamed_addr #5 align 2 {
entry:
  %keepalive_ = getelementptr inbounds i8, ptr %this, i64 424
  %bf.load = load i32, ptr %keepalive_, align 8
  %0 = and i32 %bf.load, 2623520
  %or.cond2 = icmp eq i32 %0, 2048
  br i1 %or.cond2, label %land.rhs, label %land.end

land.rhs:                                         ; preds = %entry
  %websockAcceptKey_ = getelementptr inbounds i8, ptr %this, i64 8
  %call = tail call noundef zeroext i1 @_ZNKSt7__cxx1112basic_stringIcSt11char_traitsIcESaIcEE5emptyEv(ptr noundef nonnull align 8 dereferenceable(32) %websockAcceptKey_) #25
  br label %land.end

land.end:                                         ; preds = %land.rhs, %entry
  %1 = phi i1 [ false, %entry ], [ %call, %land.rhs ]
  ret i1 %1
}